target datalayout = "e-m:e-p270:32:32-p271:32:32-p272:64:64-i64:64-i128:128-f80:128-n8:16:32:64-S128"
target triple = "x86_64-pc-linux-gnu"

%struct.ECDSA_SIG_st = type { ptr, ptr }

; Function Attrs: nounwind uwtable
define i32 @ECDSA_SIG_set0(ptr noundef %0, ptr noundef %1, ptr noundef %2) #0 {
  %4 = alloca i32, align 4
  %5 = alloca ptr, align 8
  %6 = alloca ptr, align 8
  %7 = alloca ptr, align 8
  store ptr %0, ptr %5, align 8, !tbaa !103
  store ptr %1, ptr %6, align 8, !tbaa !40
  store ptr %2, ptr %7, align 8, !tbaa !40
  %8 = load ptr, ptr %6, align 8, !tbaa !40
  %9 = icmp eq ptr %8, null
  br i1 %9, label %13, label %10

10:                                               ; preds = %3
  %11 = load ptr, ptr %7, align 8, !tbaa !40
  %12 = icmp eq ptr %11, null
  br i1 %12, label %13, label %14

13:                                               ; preds = %10, %3
  store i32 0, ptr %4, align 4
  br label %27

14:                                               ; preds = %10
  %15 = load ptr, ptr %5, align 8, !tbaa !103
  %16 = getelementptr inbounds nuw %struct.ECDSA_SIG_st, ptr %15, i32 0, i32 0
  %17 = load ptr, ptr %16, align 8, !tbaa !105
  call void @BN_clear_free(ptr noundef %17)
  %18 = load ptr, ptr %5, align 8, !tbaa !103
  %19 = getelementptr inbounds nuw %struct.ECDSA_SIG_st, ptr %18, i32 0, i32 1
  %20 = load ptr, ptr %19, align 8, !tbaa !107
  call void @BN_clear_free(ptr noundef %20)
  %21 = load ptr, ptr %6, align 8, !tbaa !40
  %22 = load ptr, ptr %5, align 8, !tbaa !103
  %23 = getelementptr inbounds nuw %struct.ECDSA_SIG_st, ptr %22, i32 0, i32 0
  store ptr %21, ptr %23, align 8, !tbaa !105
  %24 = load ptr, ptr %7, align 8, !tbaa !40
  %25 = load ptr, ptr %5, align 8, !tbaa !103
  %26 = getelementptr inbounds nuw %struct.ECDSA_SIG_st, ptr %25, i32 0, i32 1
  store ptr %24, ptr %26, align 8, !tbaa !107
  store i32 1, ptr %4, align 4
  br label %27

27:                                               ; preds = %14, %13
  %28 = load i32, ptr %4, align 4
  ret i32 %28
}