; Function Attrs: nounwind uwtable
define range(i32 0, 2) i32 @ECDSA_SIG_set0(ptr noundef captures(none) %0, ptr noundef %1, ptr noundef %2) local_unnamed_addr #0 {
  %4 = icmp eq ptr %1, null
  %5 = icmp eq ptr %2, null
  %or.cond = or i1 %4, %5
  br i1 %or.cond, label %10, label %6

6:                                                ; preds = %3
  %7 = load ptr, ptr %0, align 8, !tbaa !75
  tail call void @BN_clear_free(ptr noundef %7) #8
  %8 = getelementptr inbounds nuw i8, ptr %0, i64 8
  %9 = load ptr, ptr %8, align 8, !tbaa !77
  tail call void @BN_clear_free(ptr noundef %9) #8
  store ptr %1, ptr %0, align 8, !tbaa !75
  store ptr %2, ptr %8, align 8, !tbaa !77
  br label %10

10:                                               ; preds = %3, %6
  %.0 = phi i32 [ 1, %6 ], [ 0, %3 ]
  ret i32 %.0
}